target datalayout = "e-m:e-p270:32:32-p271:32:32-p272:64:64-i64:64-i128:128-f80:128-n8:16:32:64-S128"
target triple = "x86_64-pc-linux-gnu"

%"class.std::unique_ptr" = type { %"struct.std::__uniq_ptr_data" }
%"struct.std::__uniq_ptr_data" = type { %"class.std::__uniq_ptr_impl" }
%"class.std::__uniq_ptr_impl" = type { %"class.std::tuple" }
%"class.std::tuple" = type { %"struct.std::_Tuple_impl" }
%"struct.std::_Tuple_impl" = type { %"struct.std::_Head_base.1" }
%"struct.std::_Head_base.1" = type { ptr }
%"class.evmone::(anonymous namespace)::HistogramTracer" = type { %"class.evmone::Tracer", %"class.std::stack", ptr }
%"class.evmone::Tracer" = type { ptr, %"class.std::unique_ptr" }
%"class.std::stack" = type { %"class.std::deque" }
%"class.std::deque" = type { %"class.std::_Deque_base" }
%"class.std::_Deque_base" = type { %"struct.std::_Deque_base<evmone::(anonymous namespace)::HistogramTracer::Context, std::allocator<evmone::(anonymous namespace)::HistogramTracer::Context>>::_Deque_impl" }
%"struct.std::_Deque_base<evmone::(anonymous namespace)::HistogramTracer::Context, std::allocator<evmone::(anonymous namespace)::HistogramTracer::Context>>::_Deque_impl" = type { %"struct.std::_Deque_base<evmone::(anonymous namespace)::HistogramTracer::Context, std::allocator<evmone::(anonymous namespace)::HistogramTracer::Context>>::_Deque_impl_data" }
%"struct.std::_Deque_base<evmone::(anonymous namespace)::HistogramTracer::Context, std::allocator<evmone::(anonymous namespace)::HistogramTracer::Context>>::_Deque_impl_data" = type { ptr, i64, %"struct.std::_Deque_iterator", %"struct.std::_Deque_iterator" }
%"struct.std::_Deque_iterator" = type { ptr, ptr, ptr, ptr }
%"struct.evmone::(anonymous namespace)::HistogramTracer::Context" = type { i32, ptr, [256 x i32] }

; Function Attrs: inlinehint mustprogress nounwind uwtable
define linkonce_odr noundef i64 @_ZSt16__deque_buf_sizem(i64 noundef %0) #2 comdat {
  %2 = alloca i64, align 8
  store i64 %0, ptr %2, align 8, !tbaa !22
  %3 = load i64, ptr %2, align 8, !tbaa !22
  %4 = icmp ult i64 %3, 512
  br i1 %4, label %5, label %8

5:                                                ; preds = %1
  %6 = load i64, ptr %2, align 8, !tbaa !22
  %7 = udiv i64 512, %6
  br label %9

8:                                                ; preds = %1
  br label %9

9:                                                ; preds = %8, %5
  %10 = phi i64 [ %7, %5 ], [ 1, %8 ]
  ret i64 %10
}

; Function Attrs: mustprogress nounwind uwtable
define internal noundef i64 @_ZNSt15_Deque_iteratorIN6evmone12_GLOBAL__N_115HistogramTracer7ContextERS3_PS3_E14_S_buffer_sizeEv() #0 align 2 {
  %1 = call noundef i64 @_ZSt16__deque_buf_sizem(i64 noundef 1040)
  ret i64 %1
}

; Function Attrs: mustprogress nounwind uwtable
define internal void @_ZNSt15_Deque_iteratorIN6evmone12_GLOBAL__N_115HistogramTracer7ContextERS3_PS3_E11_M_set_nodeEPS5_(ptr noundef nonnull align 8 dereferenceable(32) %0, ptr noundef %1) #0 align 2 {
  %3 = alloca ptr, align 8
  %4 = alloca ptr, align 8
  store ptr %0, ptr %3, align 8, !tbaa !118
  store ptr %1, ptr %4, align 8, !tbaa !107
  %5 = load ptr, ptr %3, align 8
  %6 = load ptr, ptr %4, align 8, !tbaa !107
  %7 = getelementptr inbounds nuw %"struct.std::_Deque_iterator", ptr %5, i32 0, i32 3
  store ptr %6, ptr %7, align 8, !tbaa !123
  %8 = load ptr, ptr %4, align 8, !tbaa !107
  %9 = load ptr, ptr %8, align 8, !tbaa !54
  %10 = getelementptr inbounds nuw %"struct.std::_Deque_iterator", ptr %5, i32 0, i32 1
  store ptr %9, ptr %10, align 8, !tbaa !121
  %11 = getelementptr inbounds nuw %"struct.std::_Deque_iterator", ptr %5, i32 0, i32 1
  %12 = load ptr, ptr %11, align 8, !tbaa !121
  %13 = call noundef i64 @_ZNSt15_Deque_iteratorIN6evmone12_GLOBAL__N_115HistogramTracer7ContextERS3_PS3_E14_S_buffer_sizeEv() #16
  %14 = getelementptr inbounds %"struct.evmone::(anonymous namespace)::HistogramTracer::Context", ptr %12, i64 %13
  %15 = getelementptr inbounds nuw %"struct.std::_Deque_iterator", ptr %5, i32 0, i32 2
  store ptr %14, ptr %15, align 8, !tbaa !122
  ret void
}

; Function Attrs: mustprogress nounwind uwtable
define internal void @_ZNSt15_Deque_iteratorIN6evmone12_GLOBAL__N_115HistogramTracer7ContextERS3_PS3_EC2ERKS6_(ptr noundef nonnull align 8 dereferenceable(32) %0, ptr noundef nonnull align 8 dereferenceable(32) %1) unnamed_addr #0 align 2 {
  %3 = alloca ptr, align 8
  %4 = alloca ptr, align 8
  store ptr %0, ptr %3, align 8, !tbaa !118
  store ptr %1, ptr %4, align 8, !tbaa !118
  %5 = load ptr, ptr %3, align 8
  %6 = getelementptr inbounds nuw %"struct.std::_Deque_iterator", ptr %5, i32 0, i32 0
  %7 = load ptr, ptr %4, align 8, !tbaa !118, !nonnull !8, !align !9
  %8 = getelementptr inbounds nuw %"struct.std::_Deque_iterator", ptr %7, i32 0, i32 0
  %9 = load ptr, ptr %8, align 8, !tbaa !120
  store ptr %9, ptr %6, align 8, !tbaa !120
  %10 = getelementptr inbounds nuw %"struct.std::_Deque_iterator", ptr %5, i32 0, i32 1
  %11 = load ptr, ptr %4, align 8, !tbaa !118, !nonnull !8, !align !9
  %12 = getelementptr inbounds nuw %"struct.std::_Deque_iterator", ptr %11, i32 0, i32 1
  %13 = load ptr, ptr %12, align 8, !tbaa !121
  store ptr %13, ptr %10, align 8, !tbaa !121
  %14 = getelementptr inbounds nuw %"struct.std::_Deque_iterator", ptr %5, i32 0, i32 2
  %15 = load ptr, ptr %4, align 8, !tbaa !118, !nonnull !8, !align !9
  %16 = getelementptr inbounds nuw %"struct.std::_Deque_iterator", ptr %15, i32 0, i32 2
  %17 = load ptr, ptr %16, align 8, !tbaa !122
  store ptr %17, ptr %14, align 8, !tbaa !122
  %18 = getelementptr inbounds nuw %"struct.std::_Deque_iterator", ptr %5, i32 0, i32 3
  %19 = load ptr, ptr %4, align 8, !tbaa !118, !nonnull !8, !align !9
  %20 = getelementptr inbounds nuw %"struct.std::_Deque_iterator", ptr %19, i32 0, i32 3
  %21 = load ptr, ptr %20, align 8, !tbaa !123
  store ptr %21, ptr %18, align 8, !tbaa !123
  ret void
}

; Function Attrs: mustprogress nounwind uwtable
define internal noundef nonnull align 8 dereferenceable(1040) ptr @_ZNKSt15_Deque_iteratorIN6evmone12_GLOBAL__N_115HistogramTracer7ContextERS3_PS3_EdeEv(ptr noundef nonnull align 8 dereferenceable(32) %0) #0 align 2 {
  %2 = alloca ptr, align 8
  store ptr %0, ptr %2, align 8, !tbaa !118
  %3 = load ptr, ptr %2, align 8
  %4 = getelementptr inbounds nuw %"struct.std::_Deque_iterator", ptr %3, i32 0, i32 0
  %5 = load ptr, ptr %4, align 8, !tbaa !120
  ret ptr %5
}

; Function Attrs: mustprogress nounwind uwtable
define internal noundef nonnull align 8 dereferenceable(32) ptr @_ZNSt15_Deque_iteratorIN6evmone12_GLOBAL__N_115HistogramTracer7ContextERS3_PS3_EmmEv(ptr noundef nonnull align 8 dereferenceable(32) %0) #0 align 2 {
  %2 = alloca ptr, align 8
  store ptr %0, ptr %2, align 8, !tbaa !118
  %3 = load ptr, ptr %2, align 8
  %4 = getelementptr inbounds nuw %"struct.std::_Deque_iterator", ptr %3, i32 0, i32 0
  %5 = load ptr, ptr %4, align 8, !tbaa !120
  %6 = getelementptr inbounds nuw %"struct.std::_Deque_iterator", ptr %3, i32 0, i32 1
  %7 = load ptr, ptr %6, align 8, !tbaa !121
  %8 = icmp eq ptr %5, %7
  br i1 %8, label %9, label %16

9:                                                ; preds = %1
  %10 = getelementptr inbounds nuw %"struct.std::_Deque_iterator", ptr %3, i32 0, i32 3
  %11 = load ptr, ptr %10, align 8, !tbaa !123
  %12 = getelementptr inbounds ptr, ptr %11, i64 -1
  call void @_ZNSt15_Deque_iteratorIN6evmone12_GLOBAL__N_115HistogramTracer7ContextERS3_PS3_E11_M_set_nodeEPS5_(ptr noundef nonnull align 8 dereferenceable(32) %3, ptr noundef %12) #16
  %13 = getelementptr inbounds nuw %"struct.std::_Deque_iterator", ptr %3, i32 0, i32 2
  %14 = load ptr, ptr %13, align 8, !tbaa !122
  %15 = getelementptr inbounds nuw %"struct.std::_Deque_iterator", ptr %3, i32 0, i32 0
  store ptr %14, ptr %15, align 8, !tbaa !120
  br label %16

16:                                               ; preds = %9, %1
  %17 = getelementptr inbounds nuw %"struct.std::_Deque_iterator", ptr %3, i32 0, i32 0
  %18 = load ptr, ptr %17, align 8, !tbaa !120
  %19 = getelementptr inbounds %"struct.evmone::(anonymous namespace)::HistogramTracer::Context", ptr %18, i32 -1
  store ptr %19, ptr %17, align 8, !tbaa !120
  ret ptr %3
}

; Function Attrs: mustprogress nounwind uwtable
define internal void @_ZNSt5dequeIN6evmone12_GLOBAL__N_115HistogramTracer7ContextESaIS3_EE3endEv(ptr dead_on_unwind noalias writable sret(%"struct.std::_Deque_iterator") align 8 %0, ptr noundef nonnull align 8 dereferenceable(80) %1) #0 align 2 {
  %3 = alloca ptr, align 8
  %4 = alloca ptr, align 8
  store ptr %0, ptr %3, align 8
  store ptr %1, ptr %4, align 8, !tbaa !99
  %5 = load ptr, ptr %4, align 8
  %6 = getelementptr inbounds nuw %"class.std::_Deque_base", ptr %5, i32 0, i32 0
  %7 = getelementptr inbounds nuw %"struct.std::_Deque_base<evmone::(anonymous namespace)::HistogramTracer::Context, std::allocator<evmone::(anonymous namespace)::HistogramTracer::Context>>::_Deque_impl_data", ptr %6, i32 0, i32 3
  call void @_ZNSt15_Deque_iteratorIN6evmone12_GLOBAL__N_115HistogramTracer7ContextERS3_PS3_EC2ERKS6_(ptr noundef nonnull align 8 dereferenceable(32) %0, ptr noundef nonnull align 8 dereferenceable(32) %7) #16
  ret void
}

; Function Attrs: mustprogress nounwind uwtable
define internal noundef nonnull align 8 dereferenceable(1040) ptr @_ZNSt5dequeIN6evmone12_GLOBAL__N_115HistogramTracer7ContextESaIS3_EE4backEv(ptr noundef nonnull align 8 dereferenceable(80) %0) #0 align 2 {
  %2 = alloca ptr, align 8
  %3 = alloca %"struct.std::_Deque_iterator", align 8
  store ptr %0, ptr %2, align 8, !tbaa !99
  %4 = load ptr, ptr %2, align 8
  call void @llvm.lifetime.start.p0(ptr %3) #16
  call void @_ZNSt5dequeIN6evmone12_GLOBAL__N_115HistogramTracer7ContextESaIS3_EE3endEv(ptr dead_on_unwind writable sret(%"struct.std::_Deque_iterator") align 8 %3, ptr noundef nonnull align 8 dereferenceable(80) %4) #16
  %5 = call noundef nonnull align 8 dereferenceable(32) ptr @_ZNSt15_Deque_iteratorIN6evmone12_GLOBAL__N_115HistogramTracer7ContextERS3_PS3_EmmEv(ptr noundef nonnull align 8 dereferenceable(32) %3) #16
  %6 = call noundef nonnull align 8 dereferenceable(1040) ptr @_ZNKSt15_Deque_iteratorIN6evmone12_GLOBAL__N_115HistogramTracer7ContextERS3_PS3_EdeEv(ptr noundef nonnull align 8 dereferenceable(32) %3) #16
  call void @llvm.lifetime.end.p0(ptr %3) #16
  ret ptr %6
}

; Function Attrs: mustprogress nounwind uwtable
define internal noundef nonnull align 8 dereferenceable(1040) ptr @_ZNSt5stackIN6evmone12_GLOBAL__N_115HistogramTracer7ContextESt5dequeIS3_SaIS3_EEE3topEv(ptr noundef nonnull align 8 dereferenceable(80) %0) #0 align 2 {
  %2 = alloca ptr, align 8
  store ptr %0, ptr %2, align 8, !tbaa !42
  %3 = load ptr, ptr %2, align 8
  %4 = getelementptr inbounds nuw %"class.std::stack", ptr %3, i32 0, i32 0
  %5 = call noundef nonnull align 8 dereferenceable(1040) ptr @_ZNSt5dequeIN6evmone12_GLOBAL__N_115HistogramTracer7ContextESaIS3_EE4backEv(ptr noundef nonnull align 8 dereferenceable(80) %4) #16
  ret ptr %5
}

; Function Attrs: mustprogress nounwind uwtable
define internal void @_ZN6evmone12_GLOBAL__N_115HistogramTracer20on_instruction_startEjPKN4intx4uintILj256EEEilRKNS_14ExecutionStateE(ptr noundef nonnull align 8 dereferenceable(104) %0, i32 noundef %1, ptr noundef %2, i32 noundef %3, i64 noundef %4, ptr noundef nonnull align 8 dereferenceable(544) %5) unnamed_addr #0 align 2 {
  %7 = alloca ptr, align 8
  %8 = alloca i32, align 4
  %9 = alloca ptr, align 8
  %10 = alloca i32, align 4
  %11 = alloca i64, align 8
  %12 = alloca ptr, align 8
  %13 = alloca ptr, align 8
  store ptr %0, ptr %7, align 8, !tbaa !17
  store i32 %1, ptr %8, align 4, !tbaa !48
  store ptr %2, ptr %9, align 8, !tbaa !50
  store i32 %3, ptr %10, align 4, !tbaa !48
  store i64 %4, ptr %11, align 8, !tbaa !22
  store ptr %5, ptr %12, align 8, !tbaa !52
  %14 = load ptr, ptr %7, align 8
  call void @llvm.lifetime.start.p0(ptr %13) #16
  %15 = getelementptr inbounds nuw %"class.evmone::(anonymous namespace)::HistogramTracer", ptr %14, i32 0, i32 1
  %16 = call noundef nonnull align 8 dereferenceable(1040) ptr @_ZNSt5stackIN6evmone12_GLOBAL__N_115HistogramTracer7ContextESt5dequeIS3_SaIS3_EEE3topEv(ptr noundef nonnull align 8 dereferenceable(80) %15)
  store ptr %16, ptr %13, align 8, !tbaa !54
  %17 = load ptr, ptr %13, align 8, !tbaa !54, !nonnull !8, !align !9
  %18 = getelementptr inbounds nuw %"struct.evmone::(anonymous namespace)::HistogramTracer::Context", ptr %17, i32 0, i32 2
  %19 = load ptr, ptr %13, align 8, !tbaa !54, !nonnull !8, !align !9
  %20 = getelementptr inbounds nuw %"struct.evmone::(anonymous namespace)::HistogramTracer::Context", ptr %19, i32 0, i32 1
  %21 = load ptr, ptr %20, align 8, !tbaa !56
  %22 = load i32, ptr %8, align 4, !tbaa !48
  %23 = zext i32 %22 to i64
  %24 = getelementptr inbounds nuw i8, ptr %21, i64 %23
  %25 = load i8, ptr %24, align 1, !tbaa !58
  %26 = zext i8 %25 to i64
  %27 = getelementptr inbounds nuw [256 x i32], ptr %18, i64 0, i64 %26
  %28 = load i32, ptr %27, align 4, !tbaa !48
  %29 = add i32 %28, 1
  store i32 %29, ptr %27, align 4, !tbaa !48
  call void @llvm.lifetime.end.p0(ptr %13) #16
  ret void
}