; Function Attrs: mustprogress nofree norecurse nosync nounwind willreturn memory(readwrite, inaccessiblemem: none) uwtable
define internal void @_ZN6evmone12_GLOBAL__N_115HistogramTracer20on_instruction_startEjPKN4intx4uintILj256EEEilRKNS_14ExecutionStateE(ptr noundef nonnull readonly align 8 captures(none) dereferenceable(104) %0, i32 noundef %1, ptr readnone captures(none) %2, i32 %3, i64 %4, ptr nonnull readnone align 8 captures(none) %5) unnamed_addr #4 align 2 {
  %7 = getelementptr inbounds nuw i8, ptr %0, i64 64
  %8 = load ptr, ptr %7, align 8, !tbaa !80, !noalias !85
  %9 = getelementptr inbounds nuw i8, ptr %0, i64 72
  %10 = load ptr, ptr %9, align 8, !tbaa !24, !noalias !85
  %11 = icmp eq ptr %8, %10
  br i1 %11, label %12, label %_ZNSt5stackIN6evmone12_GLOBAL__N_115HistogramTracer7ContextESt5dequeIS3_SaIS3_EEE3topEv.exit

12:                                               ; preds = %6
  %13 = getelementptr inbounds nuw i8, ptr %0, i64 88
  %14 = load ptr, ptr %13, align 8, !tbaa !23, !noalias !85
  %15 = getelementptr inbounds i8, ptr %14, i64 -8
  %16 = load ptr, ptr %15, align 8, !tbaa !22
  %17 = getelementptr inbounds nuw i8, ptr %16, i64 1040
  br label %_ZNSt5stackIN6evmone12_GLOBAL__N_115HistogramTracer7ContextESt5dequeIS3_SaIS3_EEE3topEv.exit

_ZNSt5stackIN6evmone12_GLOBAL__N_115HistogramTracer7ContextESt5dequeIS3_SaIS3_EEE3topEv.exit: ; preds = %6, %12
  %18 = phi ptr [ %17, %12 ], [ %8, %6 ]
  %19 = getelementptr inbounds i8, ptr %18, i64 -1024
  %20 = getelementptr inbounds i8, ptr %18, i64 -1032
  %21 = load ptr, ptr %20, align 8, !tbaa !84
  %22 = zext i32 %1 to i64
  %23 = getelementptr inbounds nuw i8, ptr %21, i64 %22
  %24 = load i8, ptr %23, align 1, !tbaa !88
  %25 = zext i8 %24 to i64
  %26 = getelementptr inbounds nuw i32, ptr %19, i64 %25
  %27 = load i32, ptr %26, align 4, !tbaa !81
  %28 = add i32 %27, 1
  store i32 %28, ptr %26, align 4, !tbaa !81
  ret void
}